; Function Attrs: nounwind uwtable
define range(i32 0, 2) i32 @tls1_set_peer_legacy_sigalg(ptr noundef %0, ptr noundef %1) local_unnamed_addr #2 {
  %3 = alloca i64, align 8
  call void @llvm.lifetime.start.p0(i64 8, ptr nonnull %3) #14
  %4 = getelementptr inbounds nuw i8, ptr %0, i64 8
  %5 = load ptr, ptr %4, align 8, !tbaa !126
  %6 = call ptr @ssl_cert_lookup_by_pkey(ptr noundef %1, ptr noundef nonnull %3, ptr noundef %5) #14
  %7 = icmp eq ptr %6, null
  br i1 %7, label %15, label %8

8:                                                ; preds = %2
  %9 = load i64, ptr %3, align 8, !tbaa !105
  %10 = trunc i64 %9 to i32
  %11 = call fastcc ptr @tls1_get_legacy_sigalg(ptr noundef nonnull %0, i32 noundef %10)
  %12 = icmp eq ptr %11, null
  br i1 %12, label %15, label %13

13:                                               ; preds = %8
  %14 = getelementptr inbounds nuw i8, ptr %0, i64 1024
  store ptr %11, ptr %14, align 8, !tbaa !196
  br label %15

15:                                               ; preds = %8, %2, %13
  %.0 = phi i32 [ 1, %13 ], [ 0, %2 ], [ 0, %8 ]
  call void @llvm.lifetime.end.p0(i64 8, ptr nonnull %3) #14
  ret i32 %.0
}